target datalayout = "e-m:e-p270:32:32-p271:32:32-p272:64:64-i64:64-i128:128-f80:128-n8:16:32:64-S128"
target triple = "x86_64-pc-linux-gnu"

%"class.vcg::Point3.2" = type { [3 x double] }

; Function Attrs: mustprogress nounwind uwtable
define linkonce_odr noundef double @_ZN3vcg4math4SqrtEd(double noundef %0) #0 comdat {
  %2 = alloca double, align 8
  store double %0, ptr %2, align 8
  %3 = load double, ptr %2, align 8
  %4 = call double @sqrt(double noundef %3) #7
  ret double %4
}

; Function Attrs: mustprogress nounwind uwtable
define linkonce_odr void @_ZN3vcg6Point3IdEC2Eddd(ptr noundef nonnull align 8 dereferenceable(24) %0, double noundef %1, double noundef %2, double noundef %3) unnamed_addr #0 comdat align 2 {
  %5 = alloca ptr, align 8
  %6 = alloca double, align 8
  %7 = alloca double, align 8
  %8 = alloca double, align 8
  store ptr %0, ptr %5, align 8
  store double %1, ptr %6, align 8
  store double %2, ptr %7, align 8
  store double %3, ptr %8, align 8
  %9 = load ptr, ptr %5, align 8
  %10 = load double, ptr %6, align 8
  %11 = getelementptr inbounds %"class.vcg::Point3.2", ptr %9, i32 0, i32 0
  %12 = getelementptr inbounds [3 x double], ptr %11, i64 0, i64 0
  store double %10, ptr %12, align 8
  %13 = load double, ptr %7, align 8
  %14 = getelementptr inbounds %"class.vcg::Point3.2", ptr %9, i32 0, i32 0
  %15 = getelementptr inbounds [3 x double], ptr %14, i64 0, i64 1
  store double %13, ptr %15, align 8
  %16 = load double, ptr %8, align 8
  %17 = getelementptr inbounds %"class.vcg::Point3.2", ptr %9, i32 0, i32 0
  %18 = getelementptr inbounds [3 x double], ptr %17, i64 0, i64 2
  store double %16, ptr %18, align 8
  ret void
}

; Function Attrs: mustprogress nounwind uwtable
define linkonce_odr noundef float @_ZSt4ceilf(float noundef %0) #0 comdat {
  %2 = alloca float, align 4
  store float %0, ptr %2, align 4
  %3 = load float, ptr %2, align 4
  %4 = call float @llvm.ceil.f32(float %3)
  ret float %4
}

; Function Attrs: mustprogress nounwind uwtable
define linkonce_odr noundef float @_ZSt5log10f(float noundef %0) #0 comdat {
  %2 = alloca float, align 4
  store float %0, ptr %2, align 4
  %3 = load float, ptr %2, align 4
  %4 = call float @log10f(float noundef %3) #7
  ret float %4
}

; Function Attrs: mustprogress uwtable
define linkonce_odr noundef double @_ZNK3vcg6Point3IdE4NormEv(ptr noundef nonnull align 8 dereferenceable(24) %0) #1 comdat align 2 {
  %2 = alloca ptr, align 8
  store ptr %0, ptr %2, align 8
  %3 = load ptr, ptr %2, align 8
  %4 = getelementptr inbounds %"class.vcg::Point3.2", ptr %3, i32 0, i32 0
  %5 = getelementptr inbounds [3 x double], ptr %4, i64 0, i64 0
  %6 = load double, ptr %5, align 8
  %7 = getelementptr inbounds %"class.vcg::Point3.2", ptr %3, i32 0, i32 0
  %8 = getelementptr inbounds [3 x double], ptr %7, i64 0, i64 0
  %9 = load double, ptr %8, align 8
  %10 = getelementptr inbounds %"class.vcg::Point3.2", ptr %3, i32 0, i32 0
  %11 = getelementptr inbounds [3 x double], ptr %10, i64 0, i64 1
  %12 = load double, ptr %11, align 8
  %13 = getelementptr inbounds %"class.vcg::Point3.2", ptr %3, i32 0, i32 0
  %14 = getelementptr inbounds [3 x double], ptr %13, i64 0, i64 1
  %15 = load double, ptr %14, align 8
  %16 = fmul double %12, %15
  %17 = call double @llvm.fmuladd.f64(double %6, double %9, double %16)
  %18 = getelementptr inbounds %"class.vcg::Point3.2", ptr %3, i32 0, i32 0
  %19 = getelementptr inbounds [3 x double], ptr %18, i64 0, i64 2
  %20 = load double, ptr %19, align 8
  %21 = getelementptr inbounds %"class.vcg::Point3.2", ptr %3, i32 0, i32 0
  %22 = getelementptr inbounds [3 x double], ptr %21, i64 0, i64 2
  %23 = load double, ptr %22, align 8
  %24 = call double @llvm.fmuladd.f64(double %20, double %23, double %17)
  %25 = call noundef double @_ZN3vcg4math4SqrtEd(double noundef %24)
  ret double %25
}

; Function Attrs: mustprogress uwtable
define linkonce_odr void @_ZNK3vcg6Point3IdEmiERKS1_(ptr dead_on_unwind noalias writable sret(%"class.vcg::Point3.2") align 8 %0, ptr noundef nonnull align 8 dereferenceable(24) %1, ptr noundef nonnull align 8 dereferenceable(24) %2) #1 comdat align 2 {
  %4 = alloca ptr, align 8
  %5 = alloca ptr, align 8
  store ptr %1, ptr %4, align 8
  store ptr %2, ptr %5, align 8
  %6 = load ptr, ptr %4, align 8
  %7 = getelementptr inbounds %"class.vcg::Point3.2", ptr %6, i32 0, i32 0
  %8 = getelementptr inbounds [3 x double], ptr %7, i64 0, i64 0
  %9 = load double, ptr %8, align 8
  %10 = load ptr, ptr %5, align 8
  %11 = getelementptr inbounds %"class.vcg::Point3.2", ptr %10, i32 0, i32 0
  %12 = getelementptr inbounds [3 x double], ptr %11, i64 0, i64 0
  %13 = load double, ptr %12, align 8
  %14 = fsub double %9, %13
  %15 = getelementptr inbounds %"class.vcg::Point3.2", ptr %6, i32 0, i32 0
  %16 = getelementptr inbounds [3 x double], ptr %15, i64 0, i64 1
  %17 = load double, ptr %16, align 8
  %18 = load ptr, ptr %5, align 8
  %19 = getelementptr inbounds %"class.vcg::Point3.2", ptr %18, i32 0, i32 0
  %20 = getelementptr inbounds [3 x double], ptr %19, i64 0, i64 1
  %21 = load double, ptr %20, align 8
  %22 = fsub double %17, %21
  %23 = getelementptr inbounds %"class.vcg::Point3.2", ptr %6, i32 0, i32 0
  %24 = getelementptr inbounds [3 x double], ptr %23, i64 0, i64 2
  %25 = load double, ptr %24, align 8
  %26 = load ptr, ptr %5, align 8
  %27 = getelementptr inbounds %"class.vcg::Point3.2", ptr %26, i32 0, i32 0
  %28 = getelementptr inbounds [3 x double], ptr %27, i64 0, i64 2
  %29 = load double, ptr %28, align 8
  %30 = fsub double %25, %29
  call void @_ZN3vcg6Point3IdEC2Eddd(ptr noundef nonnull align 8 dereferenceable(24) %0, double noundef %14, double noundef %22, double noundef %30)
  ret void
}

; Function Attrs: mustprogress nounwind uwtable
define linkonce_odr noundef nonnull align 4 dereferenceable(4) ptr @_ZSt3maxIfERKT_S2_S2_(ptr noundef nonnull align 4 dereferenceable(4) %0, ptr noundef nonnull align 4 dereferenceable(4) %1) #0 comdat {
  %3 = alloca ptr, align 8
  %4 = alloca ptr, align 8
  %5 = alloca ptr, align 8
  store ptr %0, ptr %4, align 8
  store ptr %1, ptr %5, align 8
  %6 = load ptr, ptr %4, align 8
  %7 = load float, ptr %6, align 4
  %8 = load ptr, ptr %5, align 8
  %9 = load float, ptr %8, align 4
  %10 = fcmp olt float %7, %9
  br i1 %10, label %11, label %13

11:                                               ; preds = %2
  %12 = load ptr, ptr %5, align 8
  store ptr %12, ptr %3, align 8
  br label %15

13:                                               ; preds = %2
  %14 = load ptr, ptr %4, align 8
  store ptr %14, ptr %3, align 8
  br label %15

15:                                               ; preds = %13, %11
  %16 = load ptr, ptr %3, align 8
  ret ptr %16
}

; Function Attrs: mustprogress nounwind uwtable
define linkonce_odr noundef nonnull align 4 dereferenceable(4) ptr @_ZN3vcg4math3MinIfEERKT_S4_S4_S4_(ptr noundef nonnull align 4 dereferenceable(4) %0, ptr noundef nonnull align 4 dereferenceable(4) %1, ptr noundef nonnull align 4 dereferenceable(4) %2) #0 comdat {
  %4 = alloca ptr, align 8
  %5 = alloca ptr, align 8
  %6 = alloca ptr, align 8
  %7 = alloca ptr, align 8
  store ptr %0, ptr %5, align 8
  store ptr %1, ptr %6, align 8
  store ptr %2, ptr %7, align 8
  %8 = load ptr, ptr %5, align 8
  %9 = load float, ptr %8, align 4
  %10 = load ptr, ptr %6, align 8
  %11 = load float, ptr %10, align 4
  %12 = fcmp olt float %9, %11
  br i1 %12, label %13, label %23

13:                                               ; preds = %3
  %14 = load ptr, ptr %5, align 8
  %15 = load float, ptr %14, align 4
  %16 = load ptr, ptr %7, align 8
  %17 = load float, ptr %16, align 4
  %18 = fcmp olt float %15, %17
  br i1 %18, label %19, label %21

19:                                               ; preds = %13
  %20 = load ptr, ptr %5, align 8
  store ptr %20, ptr %4, align 8
  br label %33

21:                                               ; preds = %13
  %22 = load ptr, ptr %7, align 8
  store ptr %22, ptr %4, align 8
  br label %33

23:                                               ; preds = %3
  %24 = load ptr, ptr %6, align 8
  %25 = load float, ptr %24, align 4
  %26 = load ptr, ptr %7, align 8
  %27 = load float, ptr %26, align 4
  %28 = fcmp olt float %25, %27
  br i1 %28, label %29, label %31

29:                                               ; preds = %23
  %30 = load ptr, ptr %6, align 8
  store ptr %30, ptr %4, align 8
  br label %33

31:                                               ; preds = %23
  %32 = load ptr, ptr %7, align 8
  store ptr %32, ptr %4, align 8
  br label %33

33:                                               ; preds = %31, %29, %21, %19
  %34 = load ptr, ptr %4, align 8
  ret ptr %34
}

; Function Attrs: mustprogress uwtable
define noundef float @_ZN3vcg15CoordinateFrame9niceRoundEf(float noundef %0) #1 align 2 {
  %2 = alloca float, align 4
  store float %0, ptr %2, align 4
  %3 = load float, ptr %2, align 4
  %4 = call noundef float @_ZSt5log10f(float noundef %3)
  %5 = call noundef float @_ZSt4ceilf(float noundef %4)
  %6 = call float @powf(float noundef 1.000000e+01, float noundef %5) #7
  ret float %6
}

; Function Attrs: mustprogress uwtable
define linkonce_odr noundef double @_ZN3vcg8DistanceIdEET_RKNS_6Point3IS1_EES5_(ptr noundef nonnull align 8 dereferenceable(24) %0, ptr noundef nonnull align 8 dereferenceable(24) %1) #1 comdat {
  %3 = alloca ptr, align 8
  %4 = alloca ptr, align 8
  %5 = alloca %"class.vcg::Point3.2", align 8
  store ptr %0, ptr %3, align 8
  store ptr %1, ptr %4, align 8
  %6 = load ptr, ptr %3, align 8
  %7 = load ptr, ptr %4, align 8
  call void @_ZNK3vcg6Point3IdEmiERKS1_(ptr dead_on_unwind writable sret(%"class.vcg::Point3.2") align 8 %5, ptr noundef nonnull align 8 dereferenceable(24) %6, ptr noundef nonnull align 8 dereferenceable(24) %7)
  %8 = call noundef double @_ZNK3vcg6Point3IdE4NormEv(ptr noundef nonnull align 8 dereferenceable(24) %5)
  ret double %8
}

; Function Attrs: mustprogress nounwind uwtable
define linkonce_odr noundef nonnull align 8 dereferenceable(8) ptr @_ZN3vcg6Point3IdEixEi(ptr noundef nonnull align 8 dereferenceable(24) %0, i32 noundef %1) #0 comdat align 2 {
  %3 = alloca ptr, align 8
  %4 = alloca i32, align 4
  store ptr %0, ptr %3, align 8
  store i32 %1, ptr %4, align 4
  %5 = load ptr, ptr %3, align 8
  %6 = getelementptr inbounds %"class.vcg::Point3.2", ptr %5, i32 0, i32 0
  %7 = load i32, ptr %4, align 4
  %8 = sext i32 %7 to i64
  %9 = getelementptr inbounds [3 x double], ptr %6, i64 0, i64 %8
  ret ptr %9
}

; Function Attrs: mustprogress nounwind uwtable
define linkonce_odr noundef nonnull align 8 dereferenceable(8) ptr @_ZNK3vcg6Point3IdEixEi(ptr noundef nonnull align 8 dereferenceable(24) %0, i32 noundef %1) #0 comdat align 2 {
  %3 = alloca ptr, align 8
  %4 = alloca i32, align 4
  store ptr %0, ptr %3, align 8
  store i32 %1, ptr %4, align 4
  %5 = load ptr, ptr %3, align 8
  %6 = getelementptr inbounds %"class.vcg::Point3.2", ptr %5, i32 0, i32 0
  %7 = load i32, ptr %4, align 4
  %8 = sext i32 %7 to i64
  %9 = getelementptr inbounds [3 x double], ptr %6, i64 0, i64 %8
  ret ptr %9
}

; Function Attrs: mustprogress nounwind uwtable
define linkonce_odr void @_ZN3vcg6Point3IdEC2Ev(ptr noundef nonnull align 8 dereferenceable(24) %0) unnamed_addr #0 comdat align 2 {
  %2 = alloca ptr, align 8
  store ptr %0, ptr %2, align 8
  ret void
}

; Function Attrs: mustprogress uwtable
define noundef float @_ZN3vcg15CoordinateFrame9calcSlopeERKNS_6Point3IdEES4_fiPdS5_Pi(ptr noundef nonnull align 8 dereferenceable(24) %0, ptr noundef nonnull align 8 dereferenceable(24) %1, float noundef %2, i32 noundef %3, ptr noundef %4, ptr noundef %5, ptr noundef %6) #1 align 2 {
  %8 = alloca ptr, align 8
  %9 = alloca ptr, align 8
  %10 = alloca float, align 4
  %11 = alloca i32, align 4
  %12 = alloca ptr, align 8
  %13 = alloca ptr, align 8
  %14 = alloca ptr, align 8
  %15 = alloca %"class.vcg::Point3.2", align 8
  %16 = alloca %"class.vcg::Point3.2", align 8
  %17 = alloca float, align 4
  %18 = alloca float, align 4
  %19 = alloca float, align 4
  %20 = alloca float, align 4
  %21 = alloca float, align 4
  %22 = alloca float, align 4
  %23 = alloca float, align 4
  store ptr %0, ptr %8, align 8
  store ptr %1, ptr %9, align 8
  store float %2, ptr %10, align 4
  store i32 %3, ptr %11, align 4
  store ptr %4, ptr %12, align 8
  store ptr %5, ptr %13, align 8
  store ptr %6, ptr %14, align 8
  call void @_ZN3vcg6Point3IdEC2Ev(ptr noundef nonnull align 8 dereferenceable(24) %15)
  call void @_ZN3vcg6Point3IdEC2Ev(ptr noundef nonnull align 8 dereferenceable(24) %16)
  %24 = load ptr, ptr %8, align 8
  %25 = call noundef nonnull align 8 dereferenceable(8) ptr @_ZNK3vcg6Point3IdEixEi(ptr noundef nonnull align 8 dereferenceable(24) %24, i32 noundef 0)
  %26 = load double, ptr %25, align 8
  %27 = load ptr, ptr %8, align 8
  %28 = call noundef nonnull align 8 dereferenceable(8) ptr @_ZNK3vcg6Point3IdEixEi(ptr noundef nonnull align 8 dereferenceable(24) %27, i32 noundef 1)
  %29 = load double, ptr %28, align 8
  %30 = load ptr, ptr %8, align 8
  %31 = call noundef nonnull align 8 dereferenceable(8) ptr @_ZNK3vcg6Point3IdEixEi(ptr noundef nonnull align 8 dereferenceable(24) %30, i32 noundef 2)
  %32 = load double, ptr %31, align 8
  %33 = load ptr, ptr %12, align 8
  %34 = load ptr, ptr %13, align 8
  %35 = load ptr, ptr %14, align 8
  %36 = call noundef nonnull align 8 dereferenceable(8) ptr @_ZN3vcg6Point3IdEixEi(ptr noundef nonnull align 8 dereferenceable(24) %15, i32 noundef 0)
  %37 = call noundef nonnull align 8 dereferenceable(8) ptr @_ZN3vcg6Point3IdEixEi(ptr noundef nonnull align 8 dereferenceable(24) %15, i32 noundef 1)
  %38 = call noundef nonnull align 8 dereferenceable(8) ptr @_ZN3vcg6Point3IdEixEi(ptr noundef nonnull align 8 dereferenceable(24) %15, i32 noundef 2)
  %39 = call i32 @gluProject(double noundef %26, double noundef %29, double noundef %32, ptr noundef %33, ptr noundef %34, ptr noundef %35, ptr noundef %36, ptr noundef %37, ptr noundef %38)
  %40 = load ptr, ptr %9, align 8
  %41 = call noundef nonnull align 8 dereferenceable(8) ptr @_ZNK3vcg6Point3IdEixEi(ptr noundef nonnull align 8 dereferenceable(24) %40, i32 noundef 0)
  %42 = load double, ptr %41, align 8
  %43 = load ptr, ptr %9, align 8
  %44 = call noundef nonnull align 8 dereferenceable(8) ptr @_ZNK3vcg6Point3IdEixEi(ptr noundef nonnull align 8 dereferenceable(24) %43, i32 noundef 1)
  %45 = load double, ptr %44, align 8
  %46 = load ptr, ptr %9, align 8
  %47 = call noundef nonnull align 8 dereferenceable(8) ptr @_ZNK3vcg6Point3IdEixEi(ptr noundef nonnull align 8 dereferenceable(24) %46, i32 noundef 2)
  %48 = load double, ptr %47, align 8
  %49 = load ptr, ptr %12, align 8
  %50 = load ptr, ptr %13, align 8
  %51 = load ptr, ptr %14, align 8
  %52 = call noundef nonnull align 8 dereferenceable(8) ptr @_ZN3vcg6Point3IdEixEi(ptr noundef nonnull align 8 dereferenceable(24) %16, i32 noundef 0)
  %53 = call noundef nonnull align 8 dereferenceable(8) ptr @_ZN3vcg6Point3IdEixEi(ptr noundef nonnull align 8 dereferenceable(24) %16, i32 noundef 1)
  %54 = call noundef nonnull align 8 dereferenceable(8) ptr @_ZN3vcg6Point3IdEixEi(ptr noundef nonnull align 8 dereferenceable(24) %16, i32 noundef 2)
  %55 = call i32 @gluProject(double noundef %42, double noundef %45, double noundef %48, ptr noundef %49, ptr noundef %50, ptr noundef %51, ptr noundef %52, ptr noundef %53, ptr noundef %54)
  %56 = call noundef nonnull align 8 dereferenceable(8) ptr @_ZN3vcg6Point3IdEixEi(ptr noundef nonnull align 8 dereferenceable(24) %16, i32 noundef 2)
  store double 0.000000e+00, ptr %56, align 8
  %57 = call noundef nonnull align 8 dereferenceable(8) ptr @_ZN3vcg6Point3IdEixEi(ptr noundef nonnull align 8 dereferenceable(24) %15, i32 noundef 2)
  store double 0.000000e+00, ptr %57, align 8
  %58 = load i32, ptr %11, align 4
  %59 = sitofp i32 %58 to double
  %60 = call noundef double @_ZN3vcg8DistanceIdEET_RKNS_6Point3IS1_EES5_(ptr noundef nonnull align 8 dereferenceable(24) %16, ptr noundef nonnull align 8 dereferenceable(24) %15)
  %61 = fdiv double %59, %60
  %62 = fptrunc double %61 to float
  store float %62, ptr %17, align 4
  %63 = load float, ptr %10, align 4
  %64 = load float, ptr %17, align 4
  %65 = fmul float %63, %64
  store float %65, ptr %18, align 4
  %66 = load float, ptr %18, align 4
  %67 = call noundef float @_ZN3vcg15CoordinateFrame9niceRoundEf(float noundef %66)
  store float %67, ptr %20, align 4
  %68 = load float, ptr %18, align 4
  %69 = fmul float 2.000000e+00, %68
  %70 = call noundef float @_ZN3vcg15CoordinateFrame9niceRoundEf(float noundef %69)
  %71 = fmul float 5.000000e-01, %70
  store float %71, ptr %21, align 4
  %72 = load float, ptr %18, align 4
  %73 = fmul float 5.000000e+00, %72
  %74 = call noundef float @_ZN3vcg15CoordinateFrame9niceRoundEf(float noundef %73)
  %75 = fmul float 0x3FC99999A0000000, %74
  store float %75, ptr %22, align 4
  %76 = call noundef nonnull align 4 dereferenceable(4) ptr @_ZN3vcg4math3MinIfEERKT_S4_S4_S4_(ptr noundef nonnull align 4 dereferenceable(4) %20, ptr noundef nonnull align 4 dereferenceable(4) %21, ptr noundef nonnull align 4 dereferenceable(4) %22)
  %77 = load float, ptr %76, align 4
  store float %77, ptr %19, align 4
  %78 = load float, ptr %10, align 4
  %79 = fmul float %78, 0x3F50624DE0000000
  %80 = call noundef float @_ZN3vcg15CoordinateFrame9niceRoundEf(float noundef %79)
  store float %80, ptr %23, align 4
  %81 = call noundef nonnull align 4 dereferenceable(4) ptr @_ZSt3maxIfERKT_S2_S2_(ptr noundef nonnull align 4 dereferenceable(4) %23, ptr noundef nonnull align 4 dereferenceable(4) %19)
  %82 = load float, ptr %81, align 4
  store float %82, ptr %19, align 4
  %83 = load float, ptr %19, align 4
  ret float %83
}