; Function Attrs: mustprogress uwtable
define noundef float @_ZN3vcg15CoordinateFrame9calcSlopeERKNS_6Point3IdEES4_fiPdS5_Pi(ptr nocapture noundef nonnull readonly align 8 dereferenceable(24) %0, ptr nocapture noundef nonnull readonly align 8 dereferenceable(24) %1, float noundef %2, i32 noundef %3, ptr noundef %4, ptr noundef %5, ptr noundef %6) local_unnamed_addr #1 align 2 {
  %8 = alloca %"class.vcg::Point3.2", align 8
  %9 = alloca %"class.vcg::Point3.2", align 8
  %10 = load double, ptr %0, align 8
  %11 = getelementptr inbounds i8, ptr %0, i64 8
  %12 = load double, ptr %11, align 8
  %13 = getelementptr inbounds i8, ptr %0, i64 16
  %14 = load double, ptr %13, align 8
  %15 = getelementptr inbounds i8, ptr %8, i64 8
  %16 = getelementptr inbounds i8, ptr %8, i64 16
  %17 = call i32 @gluProject(double noundef %10, double noundef %12, double noundef %14, ptr noundef %4, ptr noundef %5, ptr noundef %6, ptr noundef nonnull %8, ptr noundef nonnull %15, ptr noundef nonnull %16)
  %18 = load double, ptr %1, align 8
  %19 = getelementptr inbounds i8, ptr %1, i64 8
  %20 = load double, ptr %19, align 8
  %21 = getelementptr inbounds i8, ptr %1, i64 16
  %22 = load double, ptr %21, align 8
  %23 = getelementptr inbounds i8, ptr %9, i64 8
  %24 = getelementptr inbounds i8, ptr %9, i64 16
  %25 = call i32 @gluProject(double noundef %18, double noundef %20, double noundef %22, ptr noundef %4, ptr noundef %5, ptr noundef %6, ptr noundef nonnull %9, ptr noundef nonnull %23, ptr noundef nonnull %24)
  store double 0.000000e+00, ptr %24, align 8
  store double 0.000000e+00, ptr %16, align 8
  %26 = sitofp i32 %3 to double
  %27 = load double, ptr %9, align 8, !noalias !50
  %28 = load double, ptr %8, align 8, !noalias !50
  %29 = fsub double %27, %28
  %30 = load double, ptr %23, align 8, !noalias !50
  %31 = load double, ptr %15, align 8, !noalias !50
  %32 = fsub double %30, %31
  %33 = fmul double %32, %32
  %34 = call double @llvm.fmuladd.f64(double %29, double %29, double %33)
  %sqrt.i.i = call noundef double @llvm.sqrt.f64(double %34)
  %35 = fdiv double %26, %sqrt.i.i
  %36 = fptrunc double %35 to float
  %37 = fmul float %36, %2
  %38 = call noundef float @log10f(float noundef %37) #24
  %39 = call noundef float @llvm.ceil.f32(float %38)
  %__exp10f.i = call noundef float @__exp10f(float %39)
  %40 = fmul float %37, 2.000000e+00
  %41 = call noundef float @log10f(float noundef %40) #24
  %42 = call noundef float @llvm.ceil.f32(float %41)
  %__exp10f.i18 = call noundef float @__exp10f(float %42)
  %43 = fmul float %__exp10f.i18, 5.000000e-01
  %44 = fmul float %37, 5.000000e+00
  %45 = call noundef float @log10f(float noundef %44) #24
  %46 = call noundef float @llvm.ceil.f32(float %45)
  %__exp10f.i19 = call noundef float @__exp10f(float %46)
  %47 = fmul float %__exp10f.i19, 0x3FC99999A0000000
  %48 = fcmp olt float %__exp10f.i, %43
  %..i = select i1 %48, float %__exp10f.i, float %43
  %49 = fcmp olt float %..i, %47
  %.sroa.speculated23 = select i1 %49, float %..i, float %47
  %50 = fmul float %2, 0x3F50624DE0000000
  %51 = call noundef float @log10f(float noundef %50) #24
  %52 = call noundef float @llvm.ceil.f32(float %51)
  %__exp10f.i20 = call noundef float @__exp10f(float %52)
  %53 = fcmp olt float %__exp10f.i20, %.sroa.speculated23
  %.sroa.speculated = select i1 %53, float %.sroa.speculated23, float %__exp10f.i20
  ret float %.sroa.speculated
}